---
triple:          'arm64-apple-darwin'
binary-path:     '/Users/abuubaida921/Desktop/cp_code/1'
relocations:
  - { offsetInCU: 0xAE, offset: 0xAE, size: 0x8, addend: 0x0, symName: __Z7toloweri, symObjAddr: 0x0, symBinAddr: 0x100003FA0, symSize: 0x1C }
  - { offsetInCU: 0xB6, offset: 0xB6, size: 0x8, addend: 0x0, symName: __ZSt19piecewise_construct, symObjAddr: 0x1F24, symBinAddr: 0x100006570, symSize: 0x0 }
  - { offsetInCU: 0xFD7, offset: 0xFD7, size: 0x8, addend: 0x0, symName: __Z7toloweri, symObjAddr: 0x0, symBinAddr: 0x100003FA0, symSize: 0x1C }
  - { offsetInCU: 0xFDF, offset: 0xFDF, size: 0x8, addend: 0x0, symName: __ZnwmPv, symObjAddr: 0x1C, symBinAddr: 0x100003FBC, symSize: 0x18 }
  - { offsetInCU: 0x191D, offset: 0x191D, size: 0x8, addend: 0x0, symName: __ZSt19piecewise_construct, symObjAddr: 0x1F24, symBinAddr: 0x100006570, symSize: 0x0 }
  - { offsetInCU: 0x1C878, offset: 0x1C878, size: 0x8, addend: 0x0, symName: __ZStL8__ioinit, symObjAddr: 0x82F40, symBinAddr: 0x10000C0AA, symSize: 0x0 }
  - { offsetInCU: 0x24A0B, offset: 0x24A0B, size: 0x8, addend: 0x0, symName: __ZNSt8__detail30__integer_to_chars_is_unsignedIjEE, symObjAddr: 0x1F25, symBinAddr: 0x100006571, symSize: 0x0 }
  - { offsetInCU: 0x24A25, offset: 0x24A25, size: 0x8, addend: 0x0, symName: __ZNSt8__detail30__integer_to_chars_is_unsignedImEE, symObjAddr: 0x1F26, symBinAddr: 0x100006572, symSize: 0x0 }
  - { offsetInCU: 0x24A3F, offset: 0x24A3F, size: 0x8, addend: 0x0, symName: __ZNSt8__detail30__integer_to_chars_is_unsignedIyEE, symObjAddr: 0x1F27, symBinAddr: 0x100006573, symSize: 0x0 }
  - { offsetInCU: 0x24B6A, offset: 0x24B6A, size: 0x8, addend: 0x0, symName: __ZNSt8__detail30__integer_to_chars_is_unsignedIoEE, symObjAddr: 0x1F28, symBinAddr: 0x100006574, symSize: 0x0 }
  - { offsetInCU: 0x24BC0, offset: 0x24BC0, size: 0x8, addend: 0x0, symName: __GLOBAL__sub_I_1.cpp, symObjAddr: 0x1F10, symBinAddr: 0x100005EB0, symSize: 0x14 }
  - { offsetInCU: 0x24BC8, offset: 0x24BC8, size: 0x8, addend: 0x0, symName: __ZSt19piecewise_construct, symObjAddr: 0x1F24, symBinAddr: 0x100006570, symSize: 0x0 }
  - { offsetInCU: 0x24BEF, offset: 0x24BEF, size: 0x8, addend: 0x0, symName: __Z41__static_initialization_and_destruction_0v, symObjAddr: 0x1ED4, symBinAddr: 0x100005E74, symSize: 0x3C }
  - { offsetInCU: 0x24BF7, offset: 0x24BF7, size: 0x8, addend: 0x0, symName: __GLOBAL__sub_I_1.cpp, symObjAddr: 0x1F10, symBinAddr: 0x100005EB0, symSize: 0x14 }
  - { offsetInCU: 0x24BE1, offset: 0x24BE1, size: 0x8, addend: 0x0, symName: __ZNSt10_Head_baseILm0ERKcLb0EE7_M_headERS2_, symObjAddr: 0x1EBC, symBinAddr: 0x100005E5C, symSize: 0x18 }
  - { offsetInCU: 0x24BE9, offset: 0x24BE9, size: 0x8, addend: 0x0, symName: __Z41__static_initialization_and_destruction_0v, symObjAddr: 0x1ED4, symBinAddr: 0x100005E74, symSize: 0x3C }
  - { offsetInCU: 0x24C12, offset: 0x24C12, size: 0x8, addend: 0x0, symName: __ZNSt11_Tuple_implILm0EJRKcEE7_M_headERS2_, symObjAddr: 0x1EA0, symBinAddr: 0x100005E40, symSize: 0x1C }
  - { offsetInCU: 0x24C1A, offset: 0x24C1A, size: 0x8, addend: 0x0, symName: __ZNSt10_Head_baseILm0ERKcLb0EE7_M_headERS2_, symObjAddr: 0x1EBC, symBinAddr: 0x100005E5C, symSize: 0x18 }
  - { offsetInCU: 0x24CC1, offset: 0x24CC1, size: 0x8, addend: 0x0, symName: __ZSt12__get_helperILm0ERKcJEERT0_RSt11_Tuple_implIXT_EJS2_DpT1_EE, symObjAddr: 0x1E84, symBinAddr: 0x100005E24, symSize: 0x1C }
  - { offsetInCU: 0x24CC9, offset: 0x24CC9, size: 0x8, addend: 0x0, symName: __ZNSt11_Tuple_implILm0EJRKcEE7_M_headERS2_, symObjAddr: 0x1EA0, symBinAddr: 0x100005E40, symSize: 0x1C }
  - { offsetInCU: 0x24CBC, offset: 0x24CBC, size: 0x8, addend: 0x0, symName: __ZNSt15__new_allocatorIPNSt8__detail15_Hash_node_baseEE8allocateEmPKv, symObjAddr: 0x1E08, symBinAddr: 0x100005DA8, symSize: 0x7C }
  - { offsetInCU: 0x24CC4, offset: 0x24CC4, size: 0x8, addend: 0x0, symName: __ZSt12__get_helperILm0ERKcJEERT0_RSt11_Tuple_implIXT_EJS2_DpT1_EE, symObjAddr: 0x1E84, symBinAddr: 0x100005E24, symSize: 0x1C }
  - { offsetInCU: 0x24D92, offset: 0x24D92, size: 0x8, addend: 0x0, symName: __ZSt7forwardIRKcEOT_RNSt16remove_referenceIS2_E4typeE, symObjAddr: 0x1DF4, symBinAddr: 0x100005D94, symSize: 0x14 }
  - { offsetInCU: 0x24D9A, offset: 0x24D9A, size: 0x8, addend: 0x0, symName: __ZNSt15__new_allocatorIPNSt8__detail15_Hash_node_baseEE8allocateEmPKv, symObjAddr: 0x1E08, symBinAddr: 0x100005DA8, symSize: 0x7C }
  - { offsetInCU: 0x24DF9, offset: 0x24DF9, size: 0x8, addend: 0x0, symName: __ZSt3getILm0EJRKcEERNSt13tuple_elementIXT_ESt5tupleIJDpT0_EEE4typeERS6_, symObjAddr: 0x1DD8, symBinAddr: 0x100005D78, symSize: 0x1C }
  - { offsetInCU: 0x24E01, offset: 0x24E01, size: 0x8, addend: 0x0, symName: __ZSt7forwardIRKcEOT_RNSt16remove_referenceIS2_E4typeE, symObjAddr: 0x1DF4, symBinAddr: 0x100005D94, symSize: 0x14 }
  - { offsetInCU: 0x24E60, offset: 0x24E60, size: 0x8, addend: 0x0, symName: __ZSt12__to_addressIPNSt8__detail15_Hash_node_baseEEPT_S4_, symObjAddr: 0x1DC4, symBinAddr: 0x100005D64, symSize: 0x14 }
  - { offsetInCU: 0x24E68, offset: 0x24E68, size: 0x8, addend: 0x0, symName: __ZSt3getILm0EJRKcEERNSt13tuple_elementIXT_ESt5tupleIJDpT0_EEE4typeERS6_, symObjAddr: 0x1DD8, symBinAddr: 0x100005D78, symSize: 0x1C }
  - { offsetInCU: 0x24F58, offset: 0x24F58, size: 0x8, addend: 0x0, symName: __ZNSt4pairIKciEC1IJRS0_EJLm0EEJEJEEERSt5tupleIJDpT_EERS4_IJDpT1_EESt12_Index_tupleIJXspT0_EEESD_IJXspT2_EEE, symObjAddr: 0x1D7C, symBinAddr: 0x100005D1C, symSize: 0x48 }
  - { offsetInCU: 0x24F60, offset: 0x24F60, size: 0x8, addend: 0x0, symName: __ZSt12__to_addressIPNSt8__detail15_Hash_node_baseEEPT_S4_, symObjAddr: 0x1DC4, symBinAddr: 0x100005D64, symSize: 0x14 }
  - { offsetInCU: 0x25014, offset: 0x25014, size: 0x8, addend: 0x0, symName: __ZSt11__addressofINSt8__detail10_Hash_nodeISt4pairIKciELb0EEEEPT_RS6_, symObjAddr: 0x1D68, symBinAddr: 0x100005D08, symSize: 0x14 }
  - { offsetInCU: 0x2501C, offset: 0x2501C, size: 0x8, addend: 0x0, symName: __ZNSt4pairIKciEC1IJRS0_EJLm0EEJEJEEERSt5tupleIJDpT_EERS4_IJDpT1_EESt12_Index_tupleIJXspT0_EEESD_IJXspT2_EEE, symObjAddr: 0x1D7C, symBinAddr: 0x100005D1C, symSize: 0x48 }
  - { offsetInCU: 0x24FCF, offset: 0x24FCF, size: 0x8, addend: 0x0, symName: __ZNK9__gnu_cxx16__aligned_bufferISt4pairIKciEE7_M_addrEv, symObjAddr: 0x1D54, symBinAddr: 0x100005CF4, symSize: 0x14 }
  - { offsetInCU: 0x24FD7, offset: 0x24FD7, size: 0x8, addend: 0x0, symName: __ZSt11__addressofINSt8__detail10_Hash_nodeISt4pairIKciELb0EEEEPT_RS6_, symObjAddr: 0x1D68, symBinAddr: 0x100005D08, symSize: 0x14 }
  - { offsetInCU: 0x25002, offset: 0x25002, size: 0x8, addend: 0x0, symName: __ZNSt8__detail16_Hashtable_allocISaINS_10_Hash_nodeISt4pairIKciELb0EEEEE19_M_allocate_bucketsEm, symObjAddr: 0x1C9C, symBinAddr: 0x100005C3C, symSize: 0xB8 }
  - { offsetInCU: 0x2500A, offset: 0x2500A, size: 0x8, addend: 0x0, symName: __ZNK9__gnu_cxx16__aligned_bufferISt4pairIKciEE7_M_addrEv, symObjAddr: 0x1D54, symBinAddr: 0x100005CF4, symSize: 0x14 }
  - { offsetInCU: 0x25201, offset: 0x25201, size: 0x8, addend: 0x0, symName: __ZNSt4pairIKciEC1IJRS0_EJEEESt21piecewise_construct_tSt5tupleIJDpT_EES5_IJDpT0_EE, symObjAddr: 0x1C60, symBinAddr: 0x100005C00, symSize: 0x3C }
  - { offsetInCU: 0x25209, offset: 0x25209, size: 0x8, addend: 0x0, symName: __ZNSt8__detail16_Hashtable_allocISaINS_10_Hash_nodeISt4pairIKciELb0EEEEE19_M_allocate_bucketsEm, symObjAddr: 0x1C9C, symBinAddr: 0x100005C3C, symSize: 0xB8 }
  - { offsetInCU: 0x2526B, offset: 0x2526B, size: 0x8, addend: 0x0, symName: __ZNSt11_Tuple_implILm0EJRKcEEC2EOS2_, symObjAddr: 0x1C38, symBinAddr: 0x100005BD8, symSize: 0x28 }
  - { offsetInCU: 0x25273, offset: 0x25273, size: 0x8, addend: 0x0, symName: __ZNSt4pairIKciEC1IJRS0_EJEEESt21piecewise_construct_tSt5tupleIJDpT_EES5_IJDpT0_EE, symObjAddr: 0x1C60, symBinAddr: 0x100005C00, symSize: 0x3C }
  - { offsetInCU: 0x25307, offset: 0x25307, size: 0x8, addend: 0x0, symName: __ZSt11__addressofIPNSt8__detail15_Hash_node_baseEEPT_RS3_, symObjAddr: 0x1C24, symBinAddr: 0x100005BC4, symSize: 0x14 }
  - { offsetInCU: 0x2530F, offset: 0x2530F, size: 0x8, addend: 0x0, symName: __ZNSt11_Tuple_implILm0EJRKcEEC2EOS2_, symObjAddr: 0x1C38, symBinAddr: 0x100005BD8, symSize: 0x28 }
  - { offsetInCU: 0x25377, offset: 0x25377, size: 0x8, addend: 0x0, symName: __ZSt9addressofINSt8__detail10_Hash_nodeISt4pairIKciELb0EEEEPT_RS6_, symObjAddr: 0x1C08, symBinAddr: 0x100005BA8, symSize: 0x1C }
  - { offsetInCU: 0x2537F, offset: 0x2537F, size: 0x8, addend: 0x0, symName: __ZSt11__addressofIPNSt8__detail15_Hash_node_baseEEPT_RS3_, symObjAddr: 0x1C24, symBinAddr: 0x100005BC4, symSize: 0x14 }
  - { offsetInCU: 0x25332, offset: 0x25332, size: 0x8, addend: 0x0, symName: __ZNK9__gnu_cxx16__aligned_bufferISt4pairIKciEE6_M_ptrEv, symObjAddr: 0x1BEC, symBinAddr: 0x100005B8C, symSize: 0x1C }
  - { offsetInCU: 0x2533A, offset: 0x2533A, size: 0x8, addend: 0x0, symName: __ZSt9addressofINSt8__detail10_Hash_nodeISt4pairIKciELb0EEEEPT_RS6_, symObjAddr: 0x1C08, symBinAddr: 0x100005BA8, symSize: 0x1C }
  - { offsetInCU: 0x25361, offset: 0x25361, size: 0x8, addend: 0x0, symName: __ZNSt10_HashtableIcSt4pairIKciESaIS2_ENSt8__detail10_Select1stESt8equal_toIcESt4hashIcENS4_18_Mod_range_hashingENS4_20_Default_ranged_hashENS4_20_Prime_rehash_policyENS4_17_Hashtable_traitsILb0ELb0ELb1EEEE19_M_allocate_bucketsEm, symObjAddr: 0x1B94, symBinAddr: 0x100005B34, symSize: 0x58 }
  - { offsetInCU: 0x25369, offset: 0x25369, size: 0x8, addend: 0x0, symName: __ZNK9__gnu_cxx16__aligned_bufferISt4pairIKciEE6_M_ptrEv, symObjAddr: 0x1BEC, symBinAddr: 0x100005B8C, symSize: 0x1C }
  - { offsetInCU: 0x253A4, offset: 0x253A4, size: 0x8, addend: 0x0, symName: __ZNSt15__new_allocatorINSt8__detail10_Hash_nodeISt4pairIKciELb0EEEE10deallocateEPS5_m, symObjAddr: 0x1B64, symBinAddr: 0x100005B04, symSize: 0x30 }
  - { offsetInCU: 0x253AC, offset: 0x253AC, size: 0x8, addend: 0x0, symName: __ZNSt10_HashtableIcSt4pairIKciESaIS2_ENSt8__detail10_Select1stESt8equal_toIcESt4hashIcENS4_18_Mod_range_hashingENS4_20_Default_ranged_hashENS4_20_Prime_rehash_policyENS4_17_Hashtable_traitsILb0ELb0ELb1EEEE19_M_allocate_bucketsEm, symObjAddr: 0x1B94, symBinAddr: 0x100005B34, symSize: 0x58 }
  - { offsetInCU: 0x254C2, offset: 0x254C2, size: 0x8, addend: 0x0, symName: __ZNSt5tupleIJRKcEEC1EOS2_, symObjAddr: 0x1B3C, symBinAddr: 0x100005ADC, symSize: 0x28 }
  - { offsetInCU: 0x254CA, offset: 0x254CA, size: 0x8, addend: 0x0, symName: __ZNSt15__new_allocatorINSt8__detail10_Hash_nodeISt4pairIKciELb0EEEE10deallocateEPS5_m, symObjAddr: 0x1B64, symBinAddr: 0x100005B04, symSize: 0x30 }
  - { offsetInCU: 0x254E5, offset: 0x254E5, size: 0x8, addend: 0x0, symName: __ZNSt15__new_allocatorINSt8__detail10_Hash_nodeISt4pairIKciELb0EEEE8allocateEmPKv, symObjAddr: 0x1AC0, symBinAddr: 0x100005A60, symSize: 0x7C }
  - { offsetInCU: 0x254ED, offset: 0x254ED, size: 0x8, addend: 0x0, symName: __ZNSt5tupleIJRKcEEC1EOS2_, symObjAddr: 0x1B3C, symBinAddr: 0x100005ADC, symSize: 0x28 }
  - { offsetInCU: 0x25571, offset: 0x25571, size: 0x8, addend: 0x0, symName: __ZN9__gnu_cxx16__aligned_bufferISt4pairIKciEE7_M_addrEv, symObjAddr: 0x1AAC, symBinAddr: 0x100005A4C, symSize: 0x14 }
  - { offsetInCU: 0x25579, offset: 0x25579, size: 0x8, addend: 0x0, symName: __ZNSt15__new_allocatorINSt8__detail10_Hash_nodeISt4pairIKciELb0EEEE8allocateEmPKv, symObjAddr: 0x1AC0, symBinAddr: 0x100005A60, symSize: 0x7C }
  - { offsetInCU: 0x255A4, offset: 0x255A4, size: 0x8, addend: 0x0, symName: __ZNKSt8__detail15_Hash_code_baseIcSt4pairIKciENS_10_Select1stESt4hashIcENS_18_Mod_range_hashingENS_20_Default_ranged_hashELb0EE15_M_bucket_indexERKNS_16_Hash_node_valueIS3_Lb0EEEm, symObjAddr: 0x1A60, symBinAddr: 0x100005A00, symSize: 0x4C }
  - { offsetInCU: 0x255AC, offset: 0x255AC, size: 0x8, addend: 0x0, symName: __ZN9__gnu_cxx16__aligned_bufferISt4pairIKciEE7_M_addrEv, symObjAddr: 0x1AAC, symBinAddr: 0x100005A4C, symSize: 0x14 }
  - { offsetInCU: 0x255FB, offset: 0x255FB, size: 0x8, addend: 0x0, symName: __ZNSt8__detail15_Hashtable_baseIcSt4pairIKciENS_10_Select1stESt8equal_toIcESt4hashIcENS_18_Mod_range_hashingENS_20_Default_ranged_hashENS_17_Hashtable_traitsILb0ELb0ELb1EEEE9_S_equalsEmRKNS_21_Hash_node_code_cacheILb0EEE, symObjAddr: 0x1A48, symBinAddr: 0x1000059E8, symSize: 0x18 }
  - { offsetInCU: 0x25603, offset: 0x25603, size: 0x8, addend: 0x0, symName: __ZNKSt8__detail15_Hash_code_baseIcSt4pairIKciENS_10_Select1stESt4hashIcENS_18_Mod_range_hashingENS_20_Default_ranged_hashELb0EE15_M_bucket_indexERKNS_16_Hash_node_valueIS3_Lb0EEEm, symObjAddr: 0x1A60, symBinAddr: 0x100005A00, symSize: 0x4C }
  - { offsetInCU: 0x25631, offset: 0x25631, size: 0x8, addend: 0x0, symName: __ZNSt15__new_allocatorIPNSt8__detail15_Hash_node_baseEE10deallocateEPS2_m, symObjAddr: 0x1A18, symBinAddr: 0x1000059B8, symSize: 0x30 }
  - { offsetInCU: 0x25639, offset: 0x25639, size: 0x8, addend: 0x0, symName: __ZNSt8__detail15_Hashtable_baseIcSt4pairIKciENS_10_Select1stESt8equal_toIcESt4hashIcENS_18_Mod_range_hashingENS_20_Default_ranged_hashENS_17_Hashtable_traitsILb0ELb0ELb1EEEE9_S_equalsEmRKNS_21_Hash_node_code_cacheILb0EEE, symObjAddr: 0x1A48, symBinAddr: 0x1000059E8, symSize: 0x18 }
  - { offsetInCU: 0x256E9, offset: 0x256E9, size: 0x8, addend: 0x0, symName: __ZNSt15__new_allocatorIPNSt8__detail15_Hash_node_baseEED2Ev, symObjAddr: 0x1A04, symBinAddr: 0x1000059A4, symSize: 0x14 }
  - { offsetInCU: 0x256F1, offset: 0x256F1, size: 0x8, addend: 0x0, symName: __ZNSt15__new_allocatorIPNSt8__detail15_Hash_node_baseEE10deallocateEPS2_m, symObjAddr: 0x1A18, symBinAddr: 0x1000059B8, symSize: 0x30 }
  - { offsetInCU: 0x2575C, offset: 0x2575C, size: 0x8, addend: 0x0, symName: __ZSt9addressofIPNSt8__detail15_Hash_node_baseEEPT_RS3_, symObjAddr: 0x19E8, symBinAddr: 0x100005988, symSize: 0x1C }
  - { offsetInCU: 0x25764, offset: 0x25764, size: 0x8, addend: 0x0, symName: __ZNSt15__new_allocatorIPNSt8__detail15_Hash_node_baseEED2Ev, symObjAddr: 0x1A04, symBinAddr: 0x1000059A4, symSize: 0x14 }
  - { offsetInCU: 0x25741, offset: 0x25741, size: 0x8, addend: 0x0, symName: __ZNSt19__ptr_traits_ptr_toIPNSt8__detail10_Hash_nodeISt4pairIKciELb0EEES5_Lb0EE10pointer_toERS5_, symObjAddr: 0x19CC, symBinAddr: 0x10000596C, symSize: 0x1C }
  - { offsetInCU: 0x25749, offset: 0x25749, size: 0x8, addend: 0x0, symName: __ZSt9addressofIPNSt8__detail15_Hash_node_baseEEPT_RS3_, symObjAddr: 0x19E8, symBinAddr: 0x100005988, symSize: 0x1C }
  - { offsetInCU: 0x257A9, offset: 0x257A9, size: 0x8, addend: 0x0, symName: __ZNSt8__detail21_Hashtable_ebo_helperILi0ESaINS_10_Hash_nodeISt4pairIKciELb0EEEELb1EE6_M_getEv, symObjAddr: 0x19B8, symBinAddr: 0x100005958, symSize: 0x14 }
  - { offsetInCU: 0x257B1, offset: 0x257B1, size: 0x8, addend: 0x0, symName: __ZNSt19__ptr_traits_ptr_toIPNSt8__detail10_Hash_nodeISt4pairIKciELb0EEES5_Lb0EE10pointer_toERS5_, symObjAddr: 0x19CC, symBinAddr: 0x10000596C, symSize: 0x1C }
  - { offsetInCU: 0x25848, offset: 0x25848, size: 0x8, addend: 0x0, symName: __ZSt7forwardIRKSt4pairIKciEEOT_RNSt16remove_referenceIS5_E4typeE, symObjAddr: 0x19A4, symBinAddr: 0x100005944, symSize: 0x14 }
  - { offsetInCU: 0x25850, offset: 0x25850, size: 0x8, addend: 0x0, symName: __ZNSt8__detail21_Hashtable_ebo_helperILi0ESaINS_10_Hash_nodeISt4pairIKciELb0EEEELb1EE6_M_getEv, symObjAddr: 0x19B8, symBinAddr: 0x100005958, symSize: 0x14 }
  - { offsetInCU: 0x2582D, offset: 0x2582D, size: 0x8, addend: 0x0, symName: __ZNKSt8__detail21_Hash_node_value_baseISt4pairIKciEE9_M_valptrEv, symObjAddr: 0x1988, symBinAddr: 0x100005928, symSize: 0x1C }
  - { offsetInCU: 0x25835, offset: 0x25835, size: 0x8, addend: 0x0, symName: __ZSt7forwardIRKSt4pairIKciEEOT_RNSt16remove_referenceIS5_E4typeE, symObjAddr: 0x19A4, symBinAddr: 0x100005944, symSize: 0x14 }
  - { offsetInCU: 0x2585C, offset: 0x2585C, size: 0x8, addend: 0x0, symName: __ZNKSt8__detail21_Hashtable_ebo_helperILi0ESt8equal_toIcELb1EE7_M_cgetEv, symObjAddr: 0x1974, symBinAddr: 0x100005914, symSize: 0x14 }
  - { offsetInCU: 0x25864, offset: 0x25864, size: 0x8, addend: 0x0, symName: __ZNKSt8__detail21_Hash_node_value_baseISt4pairIKciEE9_M_valptrEv, symObjAddr: 0x1988, symBinAddr: 0x100005928, symSize: 0x1C }
  - { offsetInCU: 0x2588B, offset: 0x2588B, size: 0x8, addend: 0x0, symName: __ZNSt10_HashtableIcSt4pairIKciESaIS2_ENSt8__detail10_Select1stESt8equal_toIcESt4hashIcENS4_18_Mod_range_hashingENS4_20_Default_ranged_hashENS4_20_Prime_rehash_policyENS4_17_Hashtable_traitsILb0ELb0ELb1EEEE13_M_rehash_auxEmSt17integral_constantIbLb1EE, symObjAddr: 0x1808, symBinAddr: 0x1000057A8, symSize: 0x16C }
  - { offsetInCU: 0x25893, offset: 0x25893, size: 0x8, addend: 0x0, symName: __ZNKSt8__detail21_Hashtable_ebo_helperILi0ESt8equal_toIcELb1EE7_M_cgetEv, symObjAddr: 0x1974, symBinAddr: 0x100005914, symSize: 0x14 }
  - { offsetInCU: 0x25AAD, offset: 0x25AAD, size: 0x8, addend: 0x0, symName: __ZSt12__to_addressINSt8__detail10_Hash_nodeISt4pairIKciELb0EEEEPT_S7_, symObjAddr: 0x17F4, symBinAddr: 0x100005794, symSize: 0x14 }
  - { offsetInCU: 0x25AB5, offset: 0x25AB5, size: 0x8, addend: 0x0, symName: __ZNSt10_HashtableIcSt4pairIKciESaIS2_ENSt8__detail10_Select1stESt8equal_toIcESt4hashIcENS4_18_Mod_range_hashingENS4_20_Default_ranged_hashENS4_20_Prime_rehash_policyENS4_17_Hashtable_traitsILb0ELb0ELb1EEEE13_M_rehash_auxEmSt17integral_constantIbLb1EE, symObjAddr: 0x1808, symBinAddr: 0x1000057A8, symSize: 0x16C }
  - { offsetInCU: 0x25AE0, offset: 0x25AE0, size: 0x8, addend: 0x0, symName: __ZNSt10_Head_baseILm0ERKcLb0EEC2ES1_, symObjAddr: 0x17D0, symBinAddr: 0x100005770, symSize: 0x24 }
  - { offsetInCU: 0x25AE8, offset: 0x25AE8, size: 0x8, addend: 0x0, symName: __ZSt12__to_addressINSt8__detail10_Hash_nodeISt4pairIKciELb0EEEEPT_S7_, symObjAddr: 0x17F4, symBinAddr: 0x100005794, symSize: 0x14 }
  - { offsetInCU: 0x25AF8, offset: 0x25AF8, size: 0x8, addend: 0x0, symName: __ZN9__gnu_cxx16__aligned_bufferISt4pairIKciEE6_M_ptrEv, symObjAddr: 0x17B4, symBinAddr: 0x100005754, symSize: 0x1C }
  - { offsetInCU: 0x25B00, offset: 0x25B00, size: 0x8, addend: 0x0, symName: __ZNSt10_Head_baseILm0ERKcLb0EEC2ES1_, symObjAddr: 0x17D0, symBinAddr: 0x100005770, symSize: 0x24 }
  - { offsetInCU: 0x25B27, offset: 0x25B27, size: 0x8, addend: 0x0, symName: __ZNKSt10_HashtableIcSt4pairIKciESaIS2_ENSt8__detail10_Select1stESt8equal_toIcESt4hashIcENS4_18_Mod_range_hashingENS4_20_Default_ranged_hashENS4_20_Prime_rehash_policyENS4_17_Hashtable_traitsILb0ELb0ELb1EEEE15_M_bucket_indexERKNS4_16_Hash_node_valueIS2_Lb0EEE, symObjAddr: 0x1784, symBinAddr: 0x100005724, symSize: 0x30 }
  - { offsetInCU: 0x25B2F, offset: 0x25B2F, size: 0x8, addend: 0x0, symName: __ZN9__gnu_cxx16__aligned_bufferISt4pairIKciEE6_M_ptrEv, symObjAddr: 0x17B4, symBinAddr: 0x100005754, symSize: 0x1C }
  - { offsetInCU: 0x25B6A, offset: 0x25B6A, size: 0x8, addend: 0x0, symName: __ZNKSt8__detail15_Hashtable_baseIcSt4pairIKciENS_10_Select1stESt8equal_toIcESt4hashIcENS_18_Mod_range_hashingENS_20_Default_ranged_hashENS_17_Hashtable_traitsILb0ELb0ELb1EEEE9_M_equalsERS2_mRKNS_16_Hash_node_valueIS3_Lb0EEE, symObjAddr: 0x171C, symBinAddr: 0x1000056BC, symSize: 0x68 }
  - { offsetInCU: 0x25B72, offset: 0x25B72, size: 0x8, addend: 0x0, symName: __ZNKSt10_HashtableIcSt4pairIKciESaIS2_ENSt8__detail10_Select1stESt8equal_toIcESt4hashIcENS4_18_Mod_range_hashingENS4_20_Default_ranged_hashENS4_20_Prime_rehash_policyENS4_17_Hashtable_traitsILb0ELb0ELb1EEEE15_M_bucket_indexERKNS4_16_Hash_node_valueIS2_Lb0EEE, symObjAddr: 0x1784, symBinAddr: 0x100005724, symSize: 0x30 }
  - { offsetInCU: 0x25BD5, offset: 0x25BD5, size: 0x8, addend: 0x0, symName: __ZNKSt8__detail21_Hashtable_ebo_helperILi1ESt4hashIcELb1EE7_M_cgetEv, symObjAddr: 0x1708, symBinAddr: 0x1000056A8, symSize: 0x14 }
  - { offsetInCU: 0x25BDD, offset: 0x25BDD, size: 0x8, addend: 0x0, symName: __ZNKSt8__detail15_Hashtable_baseIcSt4pairIKciENS_10_Select1stESt8equal_toIcESt4hashIcENS_18_Mod_range_hashingENS_20_Default_ranged_hashENS_17_Hashtable_traitsILb0ELb0ELb1EEEE9_M_equalsERS2_mRKNS_16_Hash_node_valueIS3_Lb0EEE, symObjAddr: 0x171C, symBinAddr: 0x1000056BC, symSize: 0x68 }
  - { offsetInCU: 0x25C9B, offset: 0x25C9B, size: 0x8, addend: 0x0, symName: __ZNSt19__ptr_traits_ptr_toIPPNSt8__detail15_Hash_node_baseES2_Lb0EE10pointer_toERS2_, symObjAddr: 0x16EC, symBinAddr: 0x10000568C, symSize: 0x1C }
  - { offsetInCU: 0x25CA3, offset: 0x25CA3, size: 0x8, addend: 0x0, symName: __ZNKSt8__detail21_Hashtable_ebo_helperILi1ESt4hashIcELb1EE7_M_cgetEv, symObjAddr: 0x1708, symBinAddr: 0x1000056A8, symSize: 0x14 }
  - { offsetInCU: 0x25CCC, offset: 0x25CCC, size: 0x8, addend: 0x0, symName: __ZNSt8__detail16_Hashtable_allocISaINS_10_Hash_nodeISt4pairIKciELb0EEEEE22_M_deallocate_node_ptrEPS5_, symObjAddr: 0x1694, symBinAddr: 0x100005634, symSize: 0x58 }
  - { offsetInCU: 0x25CD4, offset: 0x25CD4, size: 0x8, addend: 0x0, symName: __ZNSt19__ptr_traits_ptr_toIPPNSt8__detail15_Hash_node_baseES2_Lb0EE10pointer_toERS2_, symObjAddr: 0x16EC, symBinAddr: 0x10000568C, symSize: 0x1C }
  - { offsetInCU: 0x25DA1, offset: 0x25DA1, size: 0x8, addend: 0x0, symName: __ZNSt8__detail16_Hashtable_allocISaINS_10_Hash_nodeISt4pairIKciELb0EEEEE17_M_node_allocatorEv, symObjAddr: 0x1678, symBinAddr: 0x100005618, symSize: 0x1C }
  - { offsetInCU: 0x25DA9, offset: 0x25DA9, size: 0x8, addend: 0x0, symName: __ZNSt8__detail16_Hashtable_allocISaINS_10_Hash_nodeISt4pairIKciELb0EEEEE22_M_deallocate_node_ptrEPS5_, symObjAddr: 0x1694, symBinAddr: 0x100005634, symSize: 0x58 }
  - { offsetInCU: 0x25E4E, offset: 0x25E4E, size: 0x8, addend: 0x0, symName: __ZNSt8__detail19_Node_iterator_baseISt4pairIKciELb0EEC2EPNS_10_Hash_nodeIS3_Lb0EEE, symObjAddr: 0x1654, symBinAddr: 0x1000055F4, symSize: 0x24 }
  - { offsetInCU: 0x25E56, offset: 0x25E56, size: 0x8, addend: 0x0, symName: __ZNSt8__detail16_Hashtable_allocISaINS_10_Hash_nodeISt4pairIKciELb0EEEEE17_M_node_allocatorEv, symObjAddr: 0x1678, symBinAddr: 0x100005618, symSize: 0x1C }
  - { offsetInCU: 0x25E38, offset: 0x25E38, size: 0x8, addend: 0x0, symName: __ZNKSt8equal_toIcEclERKcS2_, symObjAddr: 0x1620, symBinAddr: 0x1000055C0, symSize: 0x34 }
  - { offsetInCU: 0x25E40, offset: 0x25E40, size: 0x8, addend: 0x0, symName: __ZNSt8__detail19_Node_iterator_baseISt4pairIKciELb0EEC2EPNS_10_Hash_nodeIS3_Lb0EEE, symObjAddr: 0x1654, symBinAddr: 0x1000055F4, symSize: 0x24 }
  - { offsetInCU: 0x25EA2, offset: 0x25EA2, size: 0x8, addend: 0x0, symName: __ZNKSt8__detail10_Select1stclIRKSt4pairIKciEEEONS0_10__1st_typeIT_E4typeEOS8_, symObjAddr: 0x1600, symBinAddr: 0x1000055A0, symSize: 0x20 }
  - { offsetInCU: 0x25EAA, offset: 0x25EAA, size: 0x8, addend: 0x0, symName: __ZNKSt8equal_toIcEclERKcS2_, symObjAddr: 0x1620, symBinAddr: 0x1000055C0, symSize: 0x34 }
  - { offsetInCU: 0x25EF1, offset: 0x25EF1, size: 0x8, addend: 0x0, symName: __ZNKSt8__detail21_Hash_node_value_baseISt4pairIKciEE4_M_vEv, symObjAddr: 0x15E4, symBinAddr: 0x100005584, symSize: 0x1C }
  - { offsetInCU: 0x25EF9, offset: 0x25EF9, size: 0x8, addend: 0x0, symName: __ZNKSt8__detail10_Select1stclIRKSt4pairIKciEEEONS0_10__1st_typeIT_E4typeEOS8_, symObjAddr: 0x1600, symBinAddr: 0x1000055A0, symSize: 0x20 }
  - { offsetInCU: 0x25F20, offset: 0x25F20, size: 0x8, addend: 0x0, symName: __ZNKSt8__detail15_Hashtable_baseIcSt4pairIKciENS_10_Select1stESt8equal_toIcESt4hashIcENS_18_Mod_range_hashingENS_20_Default_ranged_hashENS_17_Hashtable_traitsILb0ELb0ELb1EEEE5_M_eqEv, symObjAddr: 0x15C8, symBinAddr: 0x100005568, symSize: 0x1C }
  - { offsetInCU: 0x25F28, offset: 0x25F28, size: 0x8, addend: 0x0, symName: __ZNKSt8__detail21_Hash_node_value_baseISt4pairIKciEE4_M_vEv, symObjAddr: 0x15E4, symBinAddr: 0x100005584, symSize: 0x1C }
  - { offsetInCU: 0x25F4F, offset: 0x25F4F, size: 0x8, addend: 0x0, symName: __ZNSt8__detail19_Node_iterator_baseISt4pairIKciELb0EE7_M_incrEv, symObjAddr: 0x1598, symBinAddr: 0x100005538, symSize: 0x30 }
  - { offsetInCU: 0x25F57, offset: 0x25F57, size: 0x8, addend: 0x0, symName: __ZNKSt8__detail15_Hashtable_baseIcSt4pairIKciENS_10_Select1stESt8equal_toIcESt4hashIcENS_18_Mod_range_hashingENS_20_Default_ranged_hashENS_17_Hashtable_traitsILb0ELb0ELb1EEEE5_M_eqEv, symObjAddr: 0x15C8, symBinAddr: 0x100005568, symSize: 0x1C }
  - { offsetInCU: 0x25F7F, offset: 0x25F7F, size: 0x8, addend: 0x0, symName: __ZNSt8__detail22_Hashtable_hash_traitsISt4hashIcEE22__small_size_thresholdEv, symObjAddr: 0x1590, symBinAddr: 0x100005530, symSize: 0x8 }
  - { offsetInCU: 0x25F87, offset: 0x25F87, size: 0x8, addend: 0x0, symName: __ZNSt8__detail19_Node_iterator_baseISt4pairIKciELb0EE7_M_incrEv, symObjAddr: 0x1598, symBinAddr: 0x100005538, symSize: 0x30 }
  - { offsetInCU: 0x25F9B, offset: 0x25F9B, size: 0x8, addend: 0x0, symName: __ZNSt10_HashtableIcSt4pairIKciESaIS2_ENSt8__detail10_Select1stESt8equal_toIcESt4hashIcENS4_18_Mod_range_hashingENS4_20_Default_ranged_hashENS4_20_Prime_rehash_policyENS4_17_Hashtable_traitsILb0ELb0ELb1EEEE22_M_insert_bucket_beginEmPNS4_10_Hash_nodeIS2_Lb0EEE, symObjAddr: 0x1484, symBinAddr: 0x100005424, symSize: 0x10C }
  - { offsetInCU: 0x25FA3, offset: 0x25FA3, size: 0x8, addend: 0x0, symName: __ZNSt8__detail22_Hashtable_hash_traitsISt4hashIcEE22__small_size_thresholdEv, symObjAddr: 0x1590, symBinAddr: 0x100005530, symSize: 0x8 }
  - { offsetInCU: 0x25FF2, offset: 0x25FF2, size: 0x8, addend: 0x0, symName: __ZNKSt8__detail15_Hash_code_baseIcSt4pairIKciENS_10_Select1stESt4hashIcENS_18_Mod_range_hashingENS_20_Default_ranged_hashELb0EE13_M_store_codeERNS_21_Hash_node_code_cacheILb0EEEm, symObjAddr: 0x1468, symBinAddr: 0x100005408, symSize: 0x1C }
  - { offsetInCU: 0x25FFA, offset: 0x25FFA, size: 0x8, addend: 0x0, symName: __ZNSt10_HashtableIcSt4pairIKciESaIS2_ENSt8__detail10_Select1stESt8equal_toIcESt4hashIcENS4_18_Mod_range_hashingENS4_20_Default_ranged_hashENS4_20_Prime_rehash_policyENS4_17_Hashtable_traitsILb0ELb0ELb1EEEE22_M_insert_bucket_beginEmPNS4_10_Hash_nodeIS2_Lb0EEE, symObjAddr: 0x1484, symBinAddr: 0x100005424, symSize: 0x10C }
  - { offsetInCU: 0x26039, offset: 0x26039, size: 0x8, addend: 0x0, symName: __ZNSt10_HashtableIcSt4pairIKciESaIS2_ENSt8__detail10_Select1stESt8equal_toIcESt4hashIcENS4_18_Mod_range_hashingENS4_20_Default_ranged_hashENS4_20_Prime_rehash_policyENS4_17_Hashtable_traitsILb0ELb0ELb1EEEE9_M_rehashEmRKm, symObjAddr: 0x13FC, symBinAddr: 0x10000539C, symSize: 0x6C }
  - { offsetInCU: 0x26041, offset: 0x26041, size: 0x8, addend: 0x0, symName: __ZNKSt8__detail15_Hash_code_baseIcSt4pairIKciENS_10_Select1stESt4hashIcENS_18_Mod_range_hashingENS_20_Default_ranged_hashELb0EE13_M_store_codeERNS_21_Hash_node_code_cacheILb0EEEm, symObjAddr: 0x1468, symBinAddr: 0x100005408, symSize: 0x1C }
  - { offsetInCU: 0x26090, offset: 0x26090, size: 0x8, addend: 0x0, symName: __ZNSt8__detail16_Hashtable_allocISaINS_10_Hash_nodeISt4pairIKciELb0EEEEE16_M_allocate_nodeIJRKSt21piecewise_construct_tSt5tupleIJRS3_EESC_IJEEEEEPS5_DpOT_, symObjAddr: 0x1218, symBinAddr: 0x1000051B8, symSize: 0x1E4 }
  - { offsetInCU: 0x26098, offset: 0x26098, size: 0x8, addend: 0x0, symName: __ZNSt10_HashtableIcSt4pairIKciESaIS2_ENSt8__detail10_Select1stESt8equal_toIcESt4hashIcENS4_18_Mod_range_hashingENS4_20_Default_ranged_hashENS4_20_Prime_rehash_policyENS4_17_Hashtable_traitsILb0ELb0ELb1EEEE9_M_rehashEmRKm, symObjAddr: 0x13FC, symBinAddr: 0x10000539C, symSize: 0x6C }
  - { offsetInCU: 0x262BC, offset: 0x262BC, size: 0x8, addend: 0x0, symName: __ZNSt8__detail10_Hash_nodeISt4pairIKciELb0EEC1Ev, symObjAddr: 0x11F8, symBinAddr: 0x100005198, symSize: 0x20 }
  - { offsetInCU: 0x262C4, offset: 0x262C4, size: 0x8, addend: 0x0, symName: __ZNSt8__detail16_Hashtable_allocISaINS_10_Hash_nodeISt4pairIKciELb0EEEEE16_M_allocate_nodeIJRKSt21piecewise_construct_tSt5tupleIJRS3_EESC_IJEEEEEPS5_DpOT_, symObjAddr: 0x1218, symBinAddr: 0x1000051B8, symSize: 0x1E4 }
  - { offsetInCU: 0x26315, offset: 0x26315, size: 0x8, addend: 0x0, symName: __ZSt7forwardISt5tupleIJEEEOT_RNSt16remove_referenceIS2_E4typeE, symObjAddr: 0x11E4, symBinAddr: 0x100005184, symSize: 0x14 }
  - { offsetInCU: 0x2631D, offset: 0x2631D, size: 0x8, addend: 0x0, symName: __ZNSt8__detail10_Hash_nodeISt4pairIKciELb0EEC1Ev, symObjAddr: 0x11F8, symBinAddr: 0x100005198, symSize: 0x20 }
  - { offsetInCU: 0x26378, offset: 0x26378, size: 0x8, addend: 0x0, symName: __ZSt7forwardISt5tupleIJRKcEEEOT_RNSt16remove_referenceIS4_E4typeE, symObjAddr: 0x11D0, symBinAddr: 0x100005170, symSize: 0x14 }
  - { offsetInCU: 0x26380, offset: 0x26380, size: 0x8, addend: 0x0, symName: __ZSt7forwardISt5tupleIJEEEOT_RNSt16remove_referenceIS2_E4typeE, symObjAddr: 0x11E4, symBinAddr: 0x100005184, symSize: 0x14 }
  - { offsetInCU: 0x263E2, offset: 0x263E2, size: 0x8, addend: 0x0, symName: __ZSt7forwardIRKSt21piecewise_construct_tEOT_RNSt16remove_referenceIS3_E4typeE, symObjAddr: 0x11BC, symBinAddr: 0x10000515C, symSize: 0x14 }
  - { offsetInCU: 0x263EA, offset: 0x263EA, size: 0x8, addend: 0x0, symName: __ZSt7forwardISt5tupleIJRKcEEEOT_RNSt16remove_referenceIS4_E4typeE, symObjAddr: 0x11D0, symBinAddr: 0x100005170, symSize: 0x14 }
  - { offsetInCU: 0x26409, offset: 0x26409, size: 0x8, addend: 0x0, symName: __ZNSt11_Tuple_implILm0EJRKcEEC2ES1_, symObjAddr: 0x1194, symBinAddr: 0x100005134, symSize: 0x28 }
  - { offsetInCU: 0x26411, offset: 0x26411, size: 0x8, addend: 0x0, symName: __ZSt7forwardIRKSt21piecewise_construct_tEOT_RNSt16remove_referenceIS3_E4typeE, symObjAddr: 0x11BC, symBinAddr: 0x10000515C, symSize: 0x14 }
  - { offsetInCU: 0x26422, offset: 0x26422, size: 0x8, addend: 0x0, symName: __ZNSt8__detail21_Hash_node_value_baseISt4pairIKciEE9_M_valptrEv, symObjAddr: 0x1178, symBinAddr: 0x100005118, symSize: 0x1C }
  - { offsetInCU: 0x2642A, offset: 0x2642A, size: 0x8, addend: 0x0, symName: __ZNSt11_Tuple_implILm0EJRKcEEC2ES1_, symObjAddr: 0x1194, symBinAddr: 0x100005134, symSize: 0x28 }
  - { offsetInCU: 0x26451, offset: 0x26451, size: 0x8, addend: 0x0, symName: __ZNKSt10_HashtableIcSt4pairIKciESaIS2_ENSt8__detail10_Select1stESt8equal_toIcESt4hashIcENS4_18_Mod_range_hashingENS4_20_Default_ranged_hashENS4_20_Prime_rehash_policyENS4_17_Hashtable_traitsILb0ELb0ELb1EEEE19_M_find_before_nodeEmRS1_m, symObjAddr: 0x1078, symBinAddr: 0x100005018, symSize: 0x100 }
  - { offsetInCU: 0x26459, offset: 0x26459, size: 0x8, addend: 0x0, symName: __ZNSt8__detail21_Hash_node_value_baseISt4pairIKciEE9_M_valptrEv, symObjAddr: 0x1178, symBinAddr: 0x100005118, symSize: 0x1C }
  - { offsetInCU: 0x264F9, offset: 0x264F9, size: 0x8, addend: 0x0, symName: __ZNKSt8__detail15_Hash_code_baseIcSt4pairIKciENS_10_Select1stESt4hashIcENS_18_Mod_range_hashingENS_20_Default_ranged_hashELb0EE15_M_bucket_indexEmm, symObjAddr: 0x104C, symBinAddr: 0x100004FEC, symSize: 0x2C }
  - { offsetInCU: 0x26501, offset: 0x26501, size: 0x8, addend: 0x0, symName: __ZNKSt10_HashtableIcSt4pairIKciESaIS2_ENSt8__detail10_Select1stESt8equal_toIcESt4hashIcENS4_18_Mod_range_hashingENS4_20_Default_ranged_hashENS4_20_Prime_rehash_policyENS4_17_Hashtable_traitsILb0ELb0ELb1EEEE19_M_find_before_nodeEmRS1_m, symObjAddr: 0x1078, symBinAddr: 0x100005018, symSize: 0x100 }
  - { offsetInCU: 0x26550, offset: 0x26550, size: 0x8, addend: 0x0, symName: __ZNKSt8__detail15_Hash_code_baseIcSt4pairIKciENS_10_Select1stESt4hashIcENS_18_Mod_range_hashingENS_20_Default_ranged_hashELb0EE7_M_hashEv, symObjAddr: 0x1030, symBinAddr: 0x100004FD0, symSize: 0x1C }
  - { offsetInCU: 0x26558, offset: 0x26558, size: 0x8, addend: 0x0, symName: __ZNKSt8__detail15_Hash_code_baseIcSt4pairIKciENS_10_Select1stESt4hashIcENS_18_Mod_range_hashingENS_20_Default_ranged_hashELb0EE15_M_bucket_indexEmm, symObjAddr: 0x104C, symBinAddr: 0x100004FEC, symSize: 0x2C }
  - { offsetInCU: 0x2657F, offset: 0x2657F, size: 0x8, addend: 0x0, symName: __ZNSt8__detail16_Hashtable_allocISaINS_10_Hash_nodeISt4pairIKciELb0EEEEE21_M_deallocate_bucketsEPPNS_15_Hash_node_baseEm, symObjAddr: 0xFB8, symBinAddr: 0x100004F58, symSize: 0x78 }
  - { offsetInCU: 0x26587, offset: 0x26587, size: 0x8, addend: 0x0, symName: __ZNKSt8__detail15_Hash_code_baseIcSt4pairIKciENS_10_Select1stESt4hashIcENS_18_Mod_range_hashingENS_20_Default_ranged_hashELb0EE7_M_hashEv, symObjAddr: 0x1030, symBinAddr: 0x100004FD0, symSize: 0x1C }
  - { offsetInCU: 0x266BB, offset: 0x266BB, size: 0x8, addend: 0x0, symName: __ZNKSt10_HashtableIcSt4pairIKciESaIS2_ENSt8__detail10_Select1stESt8equal_toIcESt4hashIcENS4_18_Mod_range_hashingENS4_20_Default_ranged_hashENS4_20_Prime_rehash_policyENS4_17_Hashtable_traitsILb0ELb0ELb1EEEE21_M_uses_single_bucketEPPNS4_15_Hash_node_baseE, symObjAddr: 0xF7C, symBinAddr: 0x100004F1C, symSize: 0x3C }
  - { offsetInCU: 0x266C3, offset: 0x266C3, size: 0x8, addend: 0x0, symName: __ZNSt8__detail16_Hashtable_allocISaINS_10_Hash_nodeISt4pairIKciELb0EEEEE21_M_deallocate_bucketsEPPNS_15_Hash_node_baseEm, symObjAddr: 0xFB8, symBinAddr: 0x100004F58, symSize: 0x78 }
  - { offsetInCU: 0x266FE, offset: 0x266FE, size: 0x8, addend: 0x0, symName: __ZNSt8__detail16_Hashtable_allocISaINS_10_Hash_nodeISt4pairIKciELb0EEEEE18_M_deallocate_nodeEPS5_, symObjAddr: 0xF14, symBinAddr: 0x100004EB4, symSize: 0x68 }
  - { offsetInCU: 0x26706, offset: 0x26706, size: 0x8, addend: 0x0, symName: __ZNKSt10_HashtableIcSt4pairIKciESaIS2_ENSt8__detail10_Select1stESt8equal_toIcESt4hashIcENS4_18_Mod_range_hashingENS4_20_Default_ranged_hashENS4_20_Prime_rehash_policyENS4_17_Hashtable_traitsILb0ELb0ELb1EEEE21_M_uses_single_bucketEPPNS4_15_Hash_node_baseE, symObjAddr: 0xF7C, symBinAddr: 0x100004F1C, symSize: 0x3C }
  - { offsetInCU: 0x267A9, offset: 0x267A9, size: 0x8, addend: 0x0, symName: __ZNKSt8__detail10_Hash_nodeISt4pairIKciELb0EE7_M_nextEv, symObjAddr: 0xEFC, symBinAddr: 0x100004E9C, symSize: 0x18 }
  - { offsetInCU: 0x267B1, offset: 0x267B1, size: 0x8, addend: 0x0, symName: __ZNSt8__detail16_Hashtable_allocISaINS_10_Hash_nodeISt4pairIKciELb0EEEEE18_M_deallocate_nodeEPS5_, symObjAddr: 0xF14, symBinAddr: 0x100004EB4, symSize: 0x68 }
  - { offsetInCU: 0x26855, offset: 0x26855, size: 0x8, addend: 0x0, symName: __ZNSt8__detail14_Node_iteratorISt4pairIKciELb0ELb0EEC1EPNS_10_Hash_nodeIS3_Lb0EEE, symObjAddr: 0xED4, symBinAddr: 0x100004E74, symSize: 0x28 }
  - { offsetInCU: 0x2685D, offset: 0x2685D, size: 0x8, addend: 0x0, symName: __ZNKSt8__detail10_Hash_nodeISt4pairIKciELb0EE7_M_nextEv, symObjAddr: 0xEFC, symBinAddr: 0x100004E9C, symSize: 0x18 }
  - { offsetInCU: 0x26840, offset: 0x26840, size: 0x8, addend: 0x0, symName: __ZNKSt8__detail15_Hashtable_baseIcSt4pairIKciENS_10_Select1stESt8equal_toIcESt4hashIcENS_18_Mod_range_hashingENS_20_Default_ranged_hashENS_17_Hashtable_traitsILb0ELb0ELb1EEEE13_M_key_equalsERS2_RKNS_16_Hash_node_valueIS3_Lb0EEE, symObjAddr: 0xE7C, symBinAddr: 0x100004E1C, symSize: 0x58 }
  - { offsetInCU: 0x26848, offset: 0x26848, size: 0x8, addend: 0x0, symName: __ZNSt8__detail14_Node_iteratorISt4pairIKciELb0ELb0EEC1EPNS_10_Hash_nodeIS3_Lb0EEE, symObjAddr: 0xED4, symBinAddr: 0x100004E74, symSize: 0x28 }
  - { offsetInCU: 0x26897, offset: 0x26897, size: 0x8, addend: 0x0, symName: __ZNSt8__detail14_Node_iteratorISt4pairIKciELb0ELb0EEppEv, symObjAddr: 0xE5C, symBinAddr: 0x100004DFC, symSize: 0x20 }
  - { offsetInCU: 0x2689F, offset: 0x2689F, size: 0x8, addend: 0x0, symName: __ZNKSt8__detail15_Hashtable_baseIcSt4pairIKciENS_10_Select1stESt8equal_toIcESt4hashIcENS_18_Mod_range_hashingENS_20_Default_ranged_hashENS_17_Hashtable_traitsILb0ELb0ELb1EEEE13_M_key_equalsERS2_RKNS_16_Hash_node_valueIS3_Lb0EEE, symObjAddr: 0xE7C, symBinAddr: 0x100004E1C, symSize: 0x58 }
  - { offsetInCU: 0x268C6, offset: 0x268C6, size: 0x8, addend: 0x0, symName: __ZNSt10_HashtableIcSt4pairIKciESaIS2_ENSt8__detail10_Select1stESt8equal_toIcESt4hashIcENS4_18_Mod_range_hashingENS4_20_Default_ranged_hashENS4_20_Prime_rehash_policyENS4_17_Hashtable_traitsILb0ELb0ELb1EEEE5beginEv, symObjAddr: 0xE30, symBinAddr: 0x100004DD0, symSize: 0x2C }
  - { offsetInCU: 0x268CE, offset: 0x268CE, size: 0x8, addend: 0x0, symName: __ZNSt8__detail14_Node_iteratorISt4pairIKciELb0ELb0EEppEv, symObjAddr: 0xE5C, symBinAddr: 0x100004DFC, symSize: 0x20 }
  - { offsetInCU: 0x268F6, offset: 0x268F6, size: 0x8, addend: 0x0, symName: __ZNSt10_HashtableIcSt4pairIKciESaIS2_ENSt8__detail10_Select1stESt8equal_toIcESt4hashIcENS4_18_Mod_range_hashingENS4_20_Default_ranged_hashENS4_20_Prime_rehash_policyENS4_17_Hashtable_traitsILb0ELb0ELb1EEEE22__small_size_thresholdEv, symObjAddr: 0xE1C, symBinAddr: 0x100004DBC, symSize: 0x14 }
  - { offsetInCU: 0x268FE, offset: 0x268FE, size: 0x8, addend: 0x0, symName: __ZNSt10_HashtableIcSt4pairIKciESaIS2_ENSt8__detail10_Select1stESt8equal_toIcESt4hashIcENS4_18_Mod_range_hashingENS4_20_Default_ranged_hashENS4_20_Prime_rehash_policyENS4_17_Hashtable_traitsILb0ELb0ELb1EEEE5beginEv, symObjAddr: 0xE30, symBinAddr: 0x100004DD0, symSize: 0x2C }
  - { offsetInCU: 0x26913, offset: 0x26913, size: 0x8, addend: 0x0, symName: __ZNKSt10_HashtableIcSt4pairIKciESaIS2_ENSt8__detail10_Select1stESt8equal_toIcESt4hashIcENS4_18_Mod_range_hashingENS4_20_Default_ranged_hashENS4_20_Prime_rehash_policyENS4_17_Hashtable_traitsILb0ELb0ELb1EEEE4sizeEv, symObjAddr: 0xE04, symBinAddr: 0x100004DA4, symSize: 0x18 }
  - { offsetInCU: 0x2691B, offset: 0x2691B, size: 0x8, addend: 0x0, symName: __ZNSt10_HashtableIcSt4pairIKciESaIS2_ENSt8__detail10_Select1stESt8equal_toIcESt4hashIcENS4_18_Mod_range_hashingENS4_20_Default_ranged_hashENS4_20_Prime_rehash_policyENS4_17_Hashtable_traitsILb0ELb0ELb1EEEE22__small_size_thresholdEv, symObjAddr: 0xE1C, symBinAddr: 0x100004DBC, symSize: 0x14 }
  - { offsetInCU: 0x26942, offset: 0x26942, size: 0x8, addend: 0x0, symName: __ZNKSt8__detail14_Node_iteratorISt4pairIKciELb0ELb0EEptEv, symObjAddr: 0xDE0, symBinAddr: 0x100004D80, symSize: 0x24 }
  - { offsetInCU: 0x2694A, offset: 0x2694A, size: 0x8, addend: 0x0, symName: __ZNKSt10_HashtableIcSt4pairIKciESaIS2_ENSt8__detail10_Select1stESt8equal_toIcESt4hashIcENS4_18_Mod_range_hashingENS4_20_Default_ranged_hashENS4_20_Prime_rehash_policyENS4_17_Hashtable_traitsILb0ELb0ELb1EEEE4sizeEv, symObjAddr: 0xE04, symBinAddr: 0x100004DA4, symSize: 0x18 }
  - { offsetInCU: 0x26971, offset: 0x26971, size: 0x8, addend: 0x0, symName: __ZNSt10_HashtableIcSt4pairIKciESaIS2_ENSt8__detail10_Select1stESt8equal_toIcESt4hashIcENS4_18_Mod_range_hashingENS4_20_Default_ranged_hashENS4_20_Prime_rehash_policyENS4_17_Hashtable_traitsILb0ELb0ELb1EEEE21_M_insert_unique_nodeEmmPNS4_10_Hash_nodeIS2_Lb0EEEm, symObjAddr: 0xCF8, symBinAddr: 0x100004C98, symSize: 0xE8 }
  - { offsetInCU: 0x26979, offset: 0x26979, size: 0x8, addend: 0x0, symName: __ZNKSt8__detail14_Node_iteratorISt4pairIKciELb0ELb0EEptEv, symObjAddr: 0xDE0, symBinAddr: 0x100004D80, symSize: 0x24 }
  - { offsetInCU: 0x26B24, offset: 0x26B24, size: 0x8, addend: 0x0, symName: __ZNSt10_HashtableIcSt4pairIKciESaIS2_ENSt8__detail10_Select1stESt8equal_toIcESt4hashIcENS4_18_Mod_range_hashingENS4_20_Default_ranged_hashENS4_20_Prime_rehash_policyENS4_17_Hashtable_traitsILb0ELb0ELb1EEEE12_Scoped_nodeD1Ev, symObjAddr: 0xCB4, symBinAddr: 0x100004C54, symSize: 0x44 }
  - { offsetInCU: 0x26B2C, offset: 0x26B2C, size: 0x8, addend: 0x0, symName: __ZNSt10_HashtableIcSt4pairIKciESaIS2_ENSt8__detail10_Select1stESt8equal_toIcESt4hashIcENS4_18_Mod_range_hashingENS4_20_Default_ranged_hashENS4_20_Prime_rehash_policyENS4_17_Hashtable_traitsILb0ELb0ELb1EEEE21_M_insert_unique_nodeEmmPNS4_10_Hash_nodeIS2_Lb0EEEm, symObjAddr: 0xCF8, symBinAddr: 0x100004C98, symSize: 0xE8 }
  - { offsetInCU: 0x26C34, offset: 0x26C34, size: 0x8, addend: 0x0, symName: __ZNSt10_HashtableIcSt4pairIKciESaIS2_ENSt8__detail10_Select1stESt8equal_toIcESt4hashIcENS4_18_Mod_range_hashingENS4_20_Default_ranged_hashENS4_20_Prime_rehash_policyENS4_17_Hashtable_traitsILb0ELb0ELb1EEEE12_Scoped_nodeC1IJRKSt21piecewise_construct_tSt5tupleIJRS1_EESL_IJEEEEEPNS4_16_Hashtable_allocISaINS4_10_Hash_nodeIS2_Lb0EEEEEEDpOT_, symObjAddr: 0xC2C, symBinAddr: 0x100004BCC, symSize: 0x88 }
  - { offsetInCU: 0x26C3C, offset: 0x26C3C, size: 0x8, addend: 0x0, symName: __ZNSt10_HashtableIcSt4pairIKciESaIS2_ENSt8__detail10_Select1stESt8equal_toIcESt4hashIcENS4_18_Mod_range_hashingENS4_20_Default_ranged_hashENS4_20_Prime_rehash_policyENS4_17_Hashtable_traitsILb0ELb0ELb1EEEE12_Scoped_nodeD1Ev, symObjAddr: 0xCB4, symBinAddr: 0x100004C54, symSize: 0x44 }
  - { offsetInCU: 0x26BCB, offset: 0x26BCB, size: 0x8, addend: 0x0, symName: __ZNSt5tupleIJRKcEEC1ILb1ELb1EEES1_, symObjAddr: 0xC04, symBinAddr: 0x100004BA4, symSize: 0x28 }
  - { offsetInCU: 0x26BD3, offset: 0x26BD3, size: 0x8, addend: 0x0, symName: __ZNSt10_HashtableIcSt4pairIKciESaIS2_ENSt8__detail10_Select1stESt8equal_toIcESt4hashIcENS4_18_Mod_range_hashingENS4_20_Default_ranged_hashENS4_20_Prime_rehash_policyENS4_17_Hashtable_traitsILb0ELb0ELb1EEEE12_Scoped_nodeC1IJRKSt21piecewise_construct_tSt5tupleIJRS1_EESL_IJEEEEEPNS4_16_Hashtable_allocISaINS4_10_Hash_nodeIS2_Lb0EEEEEEDpOT_, symObjAddr: 0xC2C, symBinAddr: 0x100004BCC, symSize: 0x88 }
  - { offsetInCU: 0x26BF4, offset: 0x26BF4, size: 0x8, addend: 0x0, symName: __ZNSt8__detail21_Hash_node_value_baseISt4pairIKciEE4_M_vEv, symObjAddr: 0xBE8, symBinAddr: 0x100004B88, symSize: 0x1C }
  - { offsetInCU: 0x26BFC, offset: 0x26BFC, size: 0x8, addend: 0x0, symName: __ZNSt5tupleIJRKcEEC1ILb1ELb1EEES1_, symObjAddr: 0xC04, symBinAddr: 0x100004BA4, symSize: 0x28 }
  - { offsetInCU: 0x26C23, offset: 0x26C23, size: 0x8, addend: 0x0, symName: __ZNKSt10_HashtableIcSt4pairIKciESaIS2_ENSt8__detail10_Select1stESt8equal_toIcESt4hashIcENS4_18_Mod_range_hashingENS4_20_Default_ranged_hashENS4_20_Prime_rehash_policyENS4_17_Hashtable_traitsILb0ELb0ELb1EEEE12_M_find_nodeEmRS1_m, symObjAddr: 0xB94, symBinAddr: 0x100004B34, symSize: 0x54 }
  - { offsetInCU: 0x26C2B, offset: 0x26C2B, size: 0x8, addend: 0x0, symName: __ZNSt8__detail21_Hash_node_value_baseISt4pairIKciEE4_M_vEv, symObjAddr: 0xBE8, symBinAddr: 0x100004B88, symSize: 0x1C }
  - { offsetInCU: 0x26CA3, offset: 0x26CA3, size: 0x8, addend: 0x0, symName: __ZNKSt10_HashtableIcSt4pairIKciESaIS2_ENSt8__detail10_Select1stESt8equal_toIcESt4hashIcENS4_18_Mod_range_hashingENS4_20_Default_ranged_hashENS4_20_Prime_rehash_policyENS4_17_Hashtable_traitsILb0ELb0ELb1EEEE15_M_bucket_indexEm, symObjAddr: 0xB64, symBinAddr: 0x100004B04, symSize: 0x30 }
  - { offsetInCU: 0x26CAB, offset: 0x26CAB, size: 0x8, addend: 0x0, symName: __ZNKSt10_HashtableIcSt4pairIKciESaIS2_ENSt8__detail10_Select1stESt8equal_toIcESt4hashIcENS4_18_Mod_range_hashingENS4_20_Default_ranged_hashENS4_20_Prime_rehash_policyENS4_17_Hashtable_traitsILb0ELb0ELb1EEEE12_M_find_nodeEmRS1_m, symObjAddr: 0xB94, symBinAddr: 0x100004B34, symSize: 0x54 }
  - { offsetInCU: 0x26CE6, offset: 0x26CE6, size: 0x8, addend: 0x0, symName: __ZNKSt8__detail15_Hash_code_baseIcSt4pairIKciENS_10_Select1stESt4hashIcENS_18_Mod_range_hashingENS_20_Default_ranged_hashELb0EE12_M_hash_codeERS2_, symObjAddr: 0xB2C, symBinAddr: 0x100004ACC, symSize: 0x38 }
  - { offsetInCU: 0x26CEE, offset: 0x26CEE, size: 0x8, addend: 0x0, symName: __ZNKSt10_HashtableIcSt4pairIKciESaIS2_ENSt8__detail10_Select1stESt8equal_toIcESt4hashIcENS4_18_Mod_range_hashingENS4_20_Default_ranged_hashENS4_20_Prime_rehash_policyENS4_17_Hashtable_traitsILb0ELb0ELb1EEEE15_M_bucket_indexEm, symObjAddr: 0xB64, symBinAddr: 0x100004B04, symSize: 0x30 }
  - { offsetInCU: 0x26D29, offset: 0x26D29, size: 0x8, addend: 0x0, symName: __ZNSt10_HashtableIcSt4pairIKciESaIS2_ENSt8__detail10_Select1stESt8equal_toIcESt4hashIcENS4_18_Mod_range_hashingENS4_20_Default_ranged_hashENS4_20_Prime_rehash_policyENS4_17_Hashtable_traitsILb0ELb0ELb1EEEE21_M_deallocate_bucketsEPPNS4_15_Hash_node_baseEm, symObjAddr: 0xADC, symBinAddr: 0x100004A7C, symSize: 0x50 }
  - { offsetInCU: 0x26D31, offset: 0x26D31, size: 0x8, addend: 0x0, symName: __ZNKSt8__detail15_Hash_code_baseIcSt4pairIKciENS_10_Select1stESt4hashIcENS_18_Mod_range_hashingENS_20_Default_ranged_hashELb0EE12_M_hash_codeERS2_, symObjAddr: 0xB2C, symBinAddr: 0x100004ACC, symSize: 0x38 }
  - { offsetInCU: 0x26D80, offset: 0x26D80, size: 0x8, addend: 0x0, symName: __ZNSt8__detail16_Hashtable_allocISaINS_10_Hash_nodeISt4pairIKciELb0EEEEE19_M_deallocate_nodesEPS5_, symObjAddr: 0xA8C, symBinAddr: 0x100004A2C, symSize: 0x50 }
  - { offsetInCU: 0x26D88, offset: 0x26D88, size: 0x8, addend: 0x0, symName: __ZNSt10_HashtableIcSt4pairIKciESaIS2_ENSt8__detail10_Select1stESt8equal_toIcESt4hashIcENS4_18_Mod_range_hashingENS4_20_Default_ranged_hashENS4_20_Prime_rehash_policyENS4_17_Hashtable_traitsILb0ELb0ELb1EEEE21_M_deallocate_bucketsEPPNS4_15_Hash_node_baseEm, symObjAddr: 0xADC, symBinAddr: 0x100004A7C, symSize: 0x50 }
  - { offsetInCU: 0x26DEB, offset: 0x26DEB, size: 0x8, addend: 0x0, symName: __ZNKSt10_HashtableIcSt4pairIKciESaIS2_ENSt8__detail10_Select1stESt8equal_toIcESt4hashIcENS4_18_Mod_range_hashingENS4_20_Default_ranged_hashENS4_20_Prime_rehash_policyENS4_17_Hashtable_traitsILb0ELb0ELb1EEEE8_M_beginEv, symObjAddr: 0xA74, symBinAddr: 0x100004A14, symSize: 0x18 }
  - { offsetInCU: 0x26DF3, offset: 0x26DF3, size: 0x8, addend: 0x0, symName: __ZNSt8__detail16_Hashtable_allocISaINS_10_Hash_nodeISt4pairIKciELb0EEEEE19_M_deallocate_nodesEPS5_, symObjAddr: 0xA8C, symBinAddr: 0x100004A2C, symSize: 0x50 }
  - { offsetInCU: 0x26E33, offset: 0x26E33, size: 0x8, addend: 0x0, symName: __ZNSt10_HashtableIcSt4pairIKciESaIS2_ENSt8__detail10_Select1stESt8equal_toIcESt4hashIcENS4_18_Mod_range_hashingENS4_20_Default_ranged_hashENS4_20_Prime_rehash_policyENS4_17_Hashtable_traitsILb0ELb0ELb1EEEE3endEv, symObjAddr: 0xA50, symBinAddr: 0x1000049F0, symSize: 0x24 }
  - { offsetInCU: 0x26E3B, offset: 0x26E3B, size: 0x8, addend: 0x0, symName: __ZNKSt10_HashtableIcSt4pairIKciESaIS2_ENSt8__detail10_Select1stESt8equal_toIcESt4hashIcENS4_18_Mod_range_hashingENS4_20_Default_ranged_hashENS4_20_Prime_rehash_policyENS4_17_Hashtable_traitsILb0ELb0ELb1EEEE8_M_beginEv, symObjAddr: 0xA74, symBinAddr: 0x100004A14, symSize: 0x18 }
  - { offsetInCU: 0x26E62, offset: 0x26E62, size: 0x8, addend: 0x0, symName: __ZNSt10_HashtableIcSt4pairIKciESaIS2_ENSt8__detail10_Select1stESt8equal_toIcESt4hashIcENS4_18_Mod_range_hashingENS4_20_Default_ranged_hashENS4_20_Prime_rehash_policyENS4_17_Hashtable_traitsILb0ELb0ELb1EEEE4findERS1_, symObjAddr: 0x948, symBinAddr: 0x1000048E8, symSize: 0x108 }
  - { offsetInCU: 0x26E6A, offset: 0x26E6A, size: 0x8, addend: 0x0, symName: __ZNSt10_HashtableIcSt4pairIKciESaIS2_ENSt8__detail10_Select1stESt8equal_toIcESt4hashIcENS4_18_Mod_range_hashingENS4_20_Default_ranged_hashENS4_20_Prime_rehash_policyENS4_17_Hashtable_traitsILb0ELb0ELb1EEEE3endEv, symObjAddr: 0xA50, symBinAddr: 0x1000049F0, symSize: 0x24 }
  - { offsetInCU: 0x26EF7, offset: 0x26EF7, size: 0x8, addend: 0x0, symName: __ZNSt8__detail9_Map_baseIcSt4pairIKciESaIS3_ENS_10_Select1stESt8equal_toIcESt4hashIcENS_18_Mod_range_hashingENS_20_Default_ranged_hashENS_20_Prime_rehash_policyENS_17_Hashtable_traitsILb0ELb0ELb1EEELb1EEixERS2_, symObjAddr: 0x840, symBinAddr: 0x1000047E0, symSize: 0x108 }
  - { offsetInCU: 0x26EFF, offset: 0x26EFF, size: 0x8, addend: 0x0, symName: __ZNSt10_HashtableIcSt4pairIKciESaIS2_ENSt8__detail10_Select1stESt8equal_toIcESt4hashIcENS4_18_Mod_range_hashingENS4_20_Default_ranged_hashENS4_20_Prime_rehash_policyENS4_17_Hashtable_traitsILb0ELb0ELb1EEEE4findERS1_, symObjAddr: 0x948, symBinAddr: 0x1000048E8, symSize: 0x108 }
  - { offsetInCU: 0x26FD8, offset: 0x26FD8, size: 0x8, addend: 0x0, symName: __ZNK9__gnu_cxx17__normal_iteratorIPcNSt7__cxx1112basic_stringIcSt11char_traitsIcESaIcEEEE4baseEv, symObjAddr: 0x82C, symBinAddr: 0x1000047CC, symSize: 0x14 }
  - { offsetInCU: 0x26FE0, offset: 0x26FE0, size: 0x8, addend: 0x0, symName: __ZNSt8__detail9_Map_baseIcSt4pairIKciESaIS3_ENS_10_Select1stESt8equal_toIcESt4hashIcENS_18_Mod_range_hashingENS_20_Default_ranged_hashENS_20_Prime_rehash_policyENS_17_Hashtable_traitsILb0ELb0ELb1EEELb1EEixERS2_, symObjAddr: 0x840, symBinAddr: 0x1000047E0, symSize: 0x108 }
  - { offsetInCU: 0x27007, offset: 0x27007, size: 0x8, addend: 0x0, symName: __ZNSt10_HashtableIcSt4pairIKciESaIS2_ENSt8__detail10_Select1stESt8equal_toIcESt4hashIcENS4_18_Mod_range_hashingENS4_20_Default_ranged_hashENS4_20_Prime_rehash_policyENS4_17_Hashtable_traitsILb0ELb0ELb1EEEE21_M_deallocate_bucketsEv, symObjAddr: 0x7F8, symBinAddr: 0x100004798, symSize: 0x34 }
  - { offsetInCU: 0x2700F, offset: 0x2700F, size: 0x8, addend: 0x0, symName: __ZNK9__gnu_cxx17__normal_iteratorIPcNSt7__cxx1112basic_stringIcSt11char_traitsIcESaIcEEEE4baseEv, symObjAddr: 0x82C, symBinAddr: 0x1000047CC, symSize: 0x14 }
  - { offsetInCU: 0x27036, offset: 0x27036, size: 0x8, addend: 0x0, symName: __ZNSt10_HashtableIcSt4pairIKciESaIS2_ENSt8__detail10_Select1stESt8equal_toIcESt4hashIcENS4_18_Mod_range_hashingENS4_20_Default_ranged_hashENS4_20_Prime_rehash_policyENS4_17_Hashtable_traitsILb0ELb0ELb1EEEE5clearEv, symObjAddr: 0x794, symBinAddr: 0x100004734, symSize: 0x64 }
  - { offsetInCU: 0x2703E, offset: 0x2703E, size: 0x8, addend: 0x0, symName: __ZNSt10_HashtableIcSt4pairIKciESaIS2_ENSt8__detail10_Select1stESt8equal_toIcESt4hashIcENS4_18_Mod_range_hashingENS4_20_Default_ranged_hashENS4_20_Prime_rehash_policyENS4_17_Hashtable_traitsILb0ELb0ELb1EEEE21_M_deallocate_bucketsEv, symObjAddr: 0x7F8, symBinAddr: 0x100004798, symSize: 0x34 }
  - { offsetInCU: 0x270D4, offset: 0x270D4, size: 0x8, addend: 0x0, symName: __ZNSt15__new_allocatorINSt8__detail10_Hash_nodeISt4pairIKciELb0EEEED2Ev, symObjAddr: 0x780, symBinAddr: 0x100004720, symSize: 0x14 }
  - { offsetInCU: 0x270DC, offset: 0x270DC, size: 0x8, addend: 0x0, symName: __ZNSt10_HashtableIcSt4pairIKciESaIS2_ENSt8__detail10_Select1stESt8equal_toIcESt4hashIcENS4_18_Mod_range_hashingENS4_20_Default_ranged_hashENS4_20_Prime_rehash_policyENS4_17_Hashtable_traitsILb0ELb0ELb1EEEE5clearEv, symObjAddr: 0x794, symBinAddr: 0x100004734, symSize: 0x64 }
  - { offsetInCU: 0x27121, offset: 0x27121, size: 0x8, addend: 0x0, symName: __ZNSt8__detailneERKNS_19_Node_iterator_baseISt4pairIKciELb0EEES6_, symObjAddr: 0x750, symBinAddr: 0x1000046F0, symSize: 0x30 }
  - { offsetInCU: 0x27129, offset: 0x27129, size: 0x8, addend: 0x0, symName: __ZNSt15__new_allocatorINSt8__detail10_Hash_nodeISt4pairIKciELb0EEEED2Ev, symObjAddr: 0x780, symBinAddr: 0x100004720, symSize: 0x14 }
  - { offsetInCU: 0x27132, offset: 0x27132, size: 0x8, addend: 0x0, symName: __ZNSt13unordered_mapIciSt4hashIcESt8equal_toIcESaISt4pairIKciEEE3endEv, symObjAddr: 0x734, symBinAddr: 0x1000046D4, symSize: 0x1C }
  - { offsetInCU: 0x2713A, offset: 0x2713A, size: 0x8, addend: 0x0, symName: __ZNSt8__detailneERKNS_19_Node_iterator_baseISt4pairIKciELb0EEES6_, symObjAddr: 0x750, symBinAddr: 0x1000046F0, symSize: 0x30 }
  - { offsetInCU: 0x27161, offset: 0x27161, size: 0x8, addend: 0x0, symName: __ZNSt13unordered_mapIciSt4hashIcESt8equal_toIcESaISt4pairIKciEEE4findERS5_, symObjAddr: 0x710, symBinAddr: 0x1000046B0, symSize: 0x24 }
  - { offsetInCU: 0x27169, offset: 0x27169, size: 0x8, addend: 0x0, symName: __ZNSt13unordered_mapIciSt4hashIcESt8equal_toIcESaISt4pairIKciEEE3endEv, symObjAddr: 0x734, symBinAddr: 0x1000046D4, symSize: 0x1C }
  - { offsetInCU: 0x271A4, offset: 0x271A4, size: 0x8, addend: 0x0, symName: __ZNSt13unordered_mapIciSt4hashIcESt8equal_toIcESaISt4pairIKciEEEixERS5_, symObjAddr: 0x6EC, symBinAddr: 0x10000468C, symSize: 0x24 }
  - { offsetInCU: 0x271AC, offset: 0x271AC, size: 0x8, addend: 0x0, symName: __ZNSt13unordered_mapIciSt4hashIcESt8equal_toIcESaISt4pairIKciEEE4findERS5_, symObjAddr: 0x710, symBinAddr: 0x1000046B0, symSize: 0x24 }
  - { offsetInCU: 0x271E7, offset: 0x271E7, size: 0x8, addend: 0x0, symName: __ZNK9__gnu_cxx17__normal_iteratorIPcNSt7__cxx1112basic_stringIcSt11char_traitsIcESaIcEEEEdeEv, symObjAddr: 0x6D4, symBinAddr: 0x100004674, symSize: 0x18 }
  - { offsetInCU: 0x271EF, offset: 0x271EF, size: 0x8, addend: 0x0, symName: __ZNSt13unordered_mapIciSt4hashIcESt8equal_toIcESaISt4pairIKciEEEixERS5_, symObjAddr: 0x6EC, symBinAddr: 0x10000468C, symSize: 0x24 }
  - { offsetInCU: 0x27216, offset: 0x27216, size: 0x8, addend: 0x0, symName: __ZN9__gnu_cxx17__normal_iteratorIPcNSt7__cxx1112basic_stringIcSt11char_traitsIcESaIcEEEEppEv, symObjAddr: 0x6AC, symBinAddr: 0x10000464C, symSize: 0x28 }
  - { offsetInCU: 0x2721E, offset: 0x2721E, size: 0x8, addend: 0x0, symName: __ZNK9__gnu_cxx17__normal_iteratorIPcNSt7__cxx1112basic_stringIcSt11char_traitsIcESaIcEEEEdeEv, symObjAddr: 0x6D4, symBinAddr: 0x100004674, symSize: 0x18 }
  - { offsetInCU: 0x272EC, offset: 0x272EC, size: 0x8, addend: 0x0, symName: __ZN9__gnu_cxxneIPcNSt7__cxx1112basic_stringIcSt11char_traitsIcESaIcEEEEEbRKNS_17__normal_iteratorIT_T0_EESD_, symObjAddr: 0x668, symBinAddr: 0x100004608, symSize: 0x44 }
  - { offsetInCU: 0x272F4, offset: 0x272F4, size: 0x8, addend: 0x0, symName: __ZN9__gnu_cxx17__normal_iteratorIPcNSt7__cxx1112basic_stringIcSt11char_traitsIcESaIcEEEEppEv, symObjAddr: 0x6AC, symBinAddr: 0x10000464C, symSize: 0x28 }
  - { offsetInCU: 0x273B5, offset: 0x273B5, size: 0x8, addend: 0x0, symName: __ZNSt10_HashtableIcSt4pairIKciESaIS2_ENSt8__detail10_Select1stESt8equal_toIcESt4hashIcENS4_18_Mod_range_hashingENS4_20_Default_ranged_hashENS4_20_Prime_rehash_policyENS4_17_Hashtable_traitsILb0ELb0ELb1EEEED1Ev, symObjAddr: 0x638, symBinAddr: 0x1000045D8, symSize: 0x30 }
  - { offsetInCU: 0x273BD, offset: 0x273BD, size: 0x8, addend: 0x0, symName: __ZN9__gnu_cxxneIPcNSt7__cxx1112basic_stringIcSt11char_traitsIcESaIcEEEEEbRKNS_17__normal_iteratorIT_T0_EESD_, symObjAddr: 0x668, symBinAddr: 0x100004608, symSize: 0x44 }
  - { offsetInCU: 0x273AD, offset: 0x273AD, size: 0x8, addend: 0x0, symName: __ZNSt8__detail21_Hashtable_ebo_helperILi0ESaINS_10_Hash_nodeISt4pairIKciELb0EEEELb1EEC2Ev, symObjAddr: 0x60C, symBinAddr: 0x1000045AC, symSize: 0x2C }
  - { offsetInCU: 0x273B5, offset: 0x273B5, size: 0x8, addend: 0x0, symName: __ZNSt10_HashtableIcSt4pairIKciESaIS2_ENSt8__detail10_Select1stESt8equal_toIcESt4hashIcENS4_18_Mod_range_hashingENS4_20_Default_ranged_hashENS4_20_Prime_rehash_policyENS4_17_Hashtable_traitsILb0ELb0ELb1EEEED1Ev, symObjAddr: 0x638, symBinAddr: 0x1000045D8, symSize: 0x30 }
  - { offsetInCU: 0x2742C, offset: 0x2742C, size: 0x8, addend: 0x0, symName: __ZNSt8__detail21_Hashtable_ebo_helperILi0ESt8equal_toIcELb1EEC2Ev, symObjAddr: 0x5F8, symBinAddr: 0x100004598, symSize: 0x14 }
  - { offsetInCU: 0x27434, offset: 0x27434, size: 0x8, addend: 0x0, symName: __ZNSt8__detail21_Hashtable_ebo_helperILi0ESaINS_10_Hash_nodeISt4pairIKciELb0EEEELb1EEC2Ev, symObjAddr: 0x60C, symBinAddr: 0x1000045AC, symSize: 0x2C }
  - { offsetInCU: 0x27471, offset: 0x27471, size: 0x8, addend: 0x0, symName: __ZNSt8__detail21_Hashtable_ebo_helperILi1ESt4hashIcELb1EEC2Ev, symObjAddr: 0x5E4, symBinAddr: 0x100004584, symSize: 0x14 }
  - { offsetInCU: 0x27479, offset: 0x27479, size: 0x8, addend: 0x0, symName: __ZNSt8__detail21_Hashtable_ebo_helperILi0ESt8equal_toIcELb1EEC2Ev, symObjAddr: 0x5F8, symBinAddr: 0x100004598, symSize: 0x14 }
  - { offsetInCU: 0x2746D, offset: 0x2746D, size: 0x8, addend: 0x0, symName: _main, symObjAddr: 0x590, symBinAddr: 0x100004530, symSize: 0x54 }
  - { offsetInCU: 0x27475, offset: 0x27475, size: 0x8, addend: 0x0, symName: __ZNSt8__detail21_Hashtable_ebo_helperILi1ESt4hashIcELb1EEC2Ev, symObjAddr: 0x5E4, symBinAddr: 0x100004584, symSize: 0x14 }
  - { offsetInCU: 0x274B4, offset: 0x274B4, size: 0x8, addend: 0x0, symName: __Z8run_casev, symObjAddr: 0x49C, symBinAddr: 0x10000443C, symSize: 0xF4 }
  - { offsetInCU: 0x274BC, offset: 0x274BC, size: 0x8, addend: 0x0, symName: _main, symObjAddr: 0x590, symBinAddr: 0x100004530, symSize: 0x54 }
  - { offsetInCU: 0x275B7, offset: 0x275B7, size: 0x8, addend: 0x0, symName: __Z15maxPrefixLengthNSt7__cxx1112basic_stringIcSt11char_traitsIcESaIcEEES4_, symObjAddr: 0x2EC, symBinAddr: 0x10000428C, symSize: 0x1B0 }
  - { offsetInCU: 0x275BF, offset: 0x275BF, size: 0x8, addend: 0x0, symName: __Z8run_casev, symObjAddr: 0x49C, symBinAddr: 0x10000443C, symSize: 0xF4 }
  - { offsetInCU: 0x27702, offset: 0x27702, size: 0x8, addend: 0x0, symName: __ZNSt13unordered_mapIciSt4hashIcESt8equal_toIcESaISt4pairIKciEEED1Ev, symObjAddr: 0x2CC, symBinAddr: 0x10000426C, symSize: 0x20 }
  - { offsetInCU: 0x2770A, offset: 0x2770A, size: 0x8, addend: 0x0, symName: __Z15maxPrefixLengthNSt7__cxx1112basic_stringIcSt11char_traitsIcESaIcEEES4_, symObjAddr: 0x2EC, symBinAddr: 0x10000428C, symSize: 0x1B0 }
  - { offsetInCU: 0x2774B, offset: 0x2774B, size: 0x8, addend: 0x0, symName: __ZNSt13unordered_mapIciSt4hashIcESt8equal_toIcESaISt4pairIKciEEEC1Ev, symObjAddr: 0x2AC, symBinAddr: 0x10000424C, symSize: 0x20 }
  - { offsetInCU: 0x27753, offset: 0x27753, size: 0x8, addend: 0x0, symName: __ZNSt13unordered_mapIciSt4hashIcESt8equal_toIcESaISt4pairIKciEEED1Ev, symObjAddr: 0x2CC, symBinAddr: 0x10000426C, symSize: 0x20 }
  - { offsetInCU: 0x27821, offset: 0x27821, size: 0x8, addend: 0x0, symName: __ZNSt10_HashtableIcSt4pairIKciESaIS2_ENSt8__detail10_Select1stESt8equal_toIcESt4hashIcENS4_18_Mod_range_hashingENS4_20_Default_ranged_hashENS4_20_Prime_rehash_policyENS4_17_Hashtable_traitsILb0ELb0ELb1EEEEC1Ev, symObjAddr: 0x23C, symBinAddr: 0x1000041DC, symSize: 0x70 }
  - { offsetInCU: 0x27829, offset: 0x27829, size: 0x8, addend: 0x0, symName: __ZNSt13unordered_mapIciSt4hashIcESt8equal_toIcESaISt4pairIKciEEEC1Ev, symObjAddr: 0x2AC, symBinAddr: 0x10000424C, symSize: 0x20 }
  - { offsetInCU: 0x277F8, offset: 0x277F8, size: 0x8, addend: 0x0, symName: __ZNSt8__detail16_Hashtable_allocISaINS_10_Hash_nodeISt4pairIKciELb0EEEEED2Ev, symObjAddr: 0x21C, symBinAddr: 0x1000041BC, symSize: 0x20 }
  - { offsetInCU: 0x27800, offset: 0x27800, size: 0x8, addend: 0x0, symName: __ZNSt10_HashtableIcSt4pairIKciESaIS2_ENSt8__detail10_Select1stESt8equal_toIcESt4hashIcENS4_18_Mod_range_hashingENS4_20_Default_ranged_hashENS4_20_Prime_rehash_policyENS4_17_Hashtable_traitsILb0ELb0ELb1EEEEC1Ev, symObjAddr: 0x23C, symBinAddr: 0x1000041DC, symSize: 0x70 }
  - { offsetInCU: 0x27841, offset: 0x27841, size: 0x8, addend: 0x0, symName: __ZNSt8__detail16_Hashtable_allocISaINS_10_Hash_nodeISt4pairIKciELb0EEEEEC2Ev, symObjAddr: 0x1FC, symBinAddr: 0x10000419C, symSize: 0x20 }
  - { offsetInCU: 0x27849, offset: 0x27849, size: 0x8, addend: 0x0, symName: __ZNSt8__detail16_Hashtable_allocISaINS_10_Hash_nodeISt4pairIKciELb0EEEEED2Ev, symObjAddr: 0x21C, symBinAddr: 0x1000041BC, symSize: 0x20 }
  - { offsetInCU: 0x278AA, offset: 0x278AA, size: 0x8, addend: 0x0, symName: __ZNSt8__detail21_Hashtable_ebo_helperILi0ESaINS_10_Hash_nodeISt4pairIKciELb0EEEELb1EED2Ev, symObjAddr: 0x1D0, symBinAddr: 0x100004170, symSize: 0x2C }
  - { offsetInCU: 0x278B2, offset: 0x278B2, size: 0x8, addend: 0x0, symName: __ZNSt8__detail16_Hashtable_allocISaINS_10_Hash_nodeISt4pairIKciELb0EEEEEC2Ev, symObjAddr: 0x1FC, symBinAddr: 0x10000419C, symSize: 0x20 }
  - { offsetInCU: 0x27972, offset: 0x27972, size: 0x8, addend: 0x0, symName: __ZNSt8__detail15_Hashtable_baseIcSt4pairIKciENS_10_Select1stESt8equal_toIcESt4hashIcENS_18_Mod_range_hashingENS_20_Default_ranged_hashENS_17_Hashtable_traitsILb0ELb0ELb1EEEEC2Ev, symObjAddr: 0x1A8, symBinAddr: 0x100004148, symSize: 0x28 }
  - { offsetInCU: 0x2797A, offset: 0x2797A, size: 0x8, addend: 0x0, symName: __ZNSt8__detail21_Hashtable_ebo_helperILi0ESaINS_10_Hash_nodeISt4pairIKciELb0EEEELb1EED2Ev, symObjAddr: 0x1D0, symBinAddr: 0x100004170, symSize: 0x2C }
  - { offsetInCU: 0x2798C, offset: 0x2798C, size: 0x8, addend: 0x0, symName: __ZNSt8__detail15_Hash_code_baseIcSt4pairIKciENS_10_Select1stESt4hashIcENS_18_Mod_range_hashingENS_20_Default_ranged_hashELb0EEC2Ev, symObjAddr: 0x188, symBinAddr: 0x100004128, symSize: 0x20 }
  - { offsetInCU: 0x27994, offset: 0x27994, size: 0x8, addend: 0x0, symName: __ZNSt8__detail15_Hashtable_baseIcSt4pairIKciENS_10_Select1stESt8equal_toIcESt4hashIcENS_18_Mod_range_hashingENS_20_Default_ranged_hashENS_17_Hashtable_traitsILb0ELb0ELb1EEEEC2Ev, symObjAddr: 0x1A8, symBinAddr: 0x100004148, symSize: 0x28 }
  - { offsetInCU: 0x2794A, offset: 0x2794A, size: 0x8, addend: 0x0, symName: __Z3gcdii, symObjAddr: 0x134, symBinAddr: 0x1000040D4, symSize: 0x54 }
  - { offsetInCU: 0x27952, offset: 0x27952, size: 0x8, addend: 0x0, symName: __ZNSt8__detail15_Hash_code_baseIcSt4pairIKciENS_10_Select1stESt4hashIcENS_18_Mod_range_hashingENS_20_Default_ranged_hashELb0EEC2Ev, symObjAddr: 0x188, symBinAddr: 0x100004128, symSize: 0x20 }
  - { offsetInCU: 0x2798A, offset: 0x2798A, size: 0x8, addend: 0x0, symName: __ZNSt8__detail20_Prime_rehash_policy8_M_resetEm, symObjAddr: 0x110, symBinAddr: 0x1000040B0, symSize: 0x24 }
  - { offsetInCU: 0x27992, offset: 0x27992, size: 0x8, addend: 0x0, symName: __Z3gcdii, symObjAddr: 0x134, symBinAddr: 0x1000040D4, symSize: 0x54 }
  - { offsetInCU: 0x279CD, offset: 0x279CD, size: 0x8, addend: 0x0, symName: __ZNKSt8__detail20_Prime_rehash_policy8_M_stateEv, symObjAddr: 0xF8, symBinAddr: 0x100004098, symSize: 0x18 }
  - { offsetInCU: 0x279D5, offset: 0x279D5, size: 0x8, addend: 0x0, symName: __ZNSt8__detail20_Prime_rehash_policy8_M_resetEm, symObjAddr: 0x110, symBinAddr: 0x1000040B0, symSize: 0x24 }
  - { offsetInCU: 0x27A50, offset: 0x27A50, size: 0x8, addend: 0x0, symName: __ZNSt8__detail20_Prime_rehash_policyC1Ef, symObjAddr: 0xCC, symBinAddr: 0x10000406C, symSize: 0x2C }
  - { offsetInCU: 0x27A58, offset: 0x27A58, size: 0x8, addend: 0x0, symName: __ZNKSt8__detail20_Prime_rehash_policy8_M_stateEv, symObjAddr: 0xF8, symBinAddr: 0x100004098, symSize: 0x18 }
  - { offsetInCU: 0x27A64, offset: 0x27A64, size: 0x8, addend: 0x0, symName: __ZNKSt8__detail18_Mod_range_hashingclEmm, symObjAddr: 0x9C, symBinAddr: 0x10000403C, symSize: 0x30 }
  - { offsetInCU: 0x27A6C, offset: 0x27A6C, size: 0x8, addend: 0x0, symName: __ZNSt8__detail20_Prime_rehash_policyC1Ef, symObjAddr: 0xCC, symBinAddr: 0x10000406C, symSize: 0x2C }
  - { offsetInCU: 0x27AF8, offset: 0x27AF8, size: 0x8, addend: 0x0, symName: __ZNSt8__detail15_Hash_node_baseC1Ev, symObjAddr: 0x80, symBinAddr: 0x100004020, symSize: 0x1C }
  - { offsetInCU: 0x27B00, offset: 0x27B00, size: 0x8, addend: 0x0, symName: __ZNKSt8__detail18_Mod_range_hashingclEmm, symObjAddr: 0x9C, symBinAddr: 0x10000403C, symSize: 0x30 }
  - { offsetInCU: 0x27B28, offset: 0x27B28, size: 0x8, addend: 0x0, symName: __ZNSt8__detail15_Hash_node_baseC2Ev, symObjAddr: 0x64, symBinAddr: 0x100004004, symSize: 0x1C }
  - { offsetInCU: 0x27B30, offset: 0x27B30, size: 0x8, addend: 0x0, symName: __ZNSt8__detail15_Hash_node_baseC1Ev, symObjAddr: 0x80, symBinAddr: 0x100004020, symSize: 0x1C }
  - { offsetInCU: 0x27B34, offset: 0x27B34, size: 0x8, addend: 0x0, symName: __ZNKSt4hashIcEclEc, symObjAddr: 0x4C, symBinAddr: 0x100003FEC, symSize: 0x18 }
  - { offsetInCU: 0x27B3C, offset: 0x27B3C, size: 0x8, addend: 0x0, symName: __ZNSt8__detail15_Hash_node_baseC2Ev, symObjAddr: 0x64, symBinAddr: 0x100004004, symSize: 0x1C }
  - { offsetInCU: 0x27B84, offset: 0x27B84, size: 0x8, addend: 0x0, symName: __ZdlPvS_, symObjAddr: 0x34, symBinAddr: 0x100003FD4, symSize: 0x18 }
  - { offsetInCU: 0x27B8C, offset: 0x27B8C, size: 0x8, addend: 0x0, symName: __ZNKSt4hashIcEclEc, symObjAddr: 0x4C, symBinAddr: 0x100003FEC, symSize: 0x18 }
  - { offsetInCU: 0x27BC2, offset: 0x27BC2, size: 0x8, addend: 0x0, symName: __ZnwmPv, symObjAddr: 0x1C, symBinAddr: 0x100003FBC, symSize: 0x18 }
  - { offsetInCU: 0x27BCA, offset: 0x27BCA, size: 0x8, addend: 0x0, symName: __ZdlPvS_, symObjAddr: 0x34, symBinAddr: 0x100003FD4, symSize: 0x18 }
...
